; Function Attrs: mustprogress uwtable
define void @_ZN7Imf_3_211StdISStreamC2Ev(ptr noundef nonnull align 8 dereferenceable(424) %this) unnamed_addr #3 align 2 personality ptr @__gxx_personality_v0 {
entry:
  tail call void @_ZN7Imf_3_27IStreamC2EPKc(ptr noundef nonnull align 8 dereferenceable(40) %this, ptr noundef nonnull @.str.1)
  store ptr getelementptr inbounds ({ [10 x ptr] }, ptr @_ZTVN7Imf_3_211StdISStreamE, i64 0, i32 0, i64 2), ptr %this, align 8
  %_is = getelementptr inbounds i8, ptr %this, i64 40
  invoke void @_ZNSt7__cxx1119basic_istringstreamIcSt11char_traitsIcESaIcEEC1Ev(ptr noundef nonnull align 8 dereferenceable(120) %_is)
          to label %invoke.cont unwind label %lpad

invoke.cont:                                      ; preds = %entry
  ret void

lpad:                                             ; preds = %entry
  %0 = landingpad { ptr, i32 }
          cleanup
  tail call void @_ZN7Imf_3_27IStreamD2Ev(ptr noundef nonnull align 8 dereferenceable(40) %this) #11
  resume { ptr, i32 } %0
}